target datalayout = "e-m:e-p270:32:32-p271:32:32-p272:64:64-i64:64-i128:128-f80:128-n8:16:32:64-S128"
target triple = "x86_64-pc-linux-gnu"

@.str.1 = private unnamed_addr constant [10 x i8] c"copydir.c\00", align 1
@InterruptPending = external global i32, align 4
@.str.5 = private unnamed_addr constant [29 x i8] c"could not open file \22%s\22: %m\00", align 1
@__func__.copy_file = private unnamed_addr constant [10 x i8] c"copy_file\00", align 1
@.str.6 = private unnamed_addr constant [31 x i8] c"could not create file \22%s\22: %m\00", align 1
@.str.7 = private unnamed_addr constant [29 x i8] c"could not read file \22%s\22: %m\00", align 1
@.str.8 = private unnamed_addr constant [33 x i8] c"could not write to file \22%s\22: %m\00", align 1
@.str.9 = private unnamed_addr constant [30 x i8] c"could not close file \22%s\22: %m\00", align 1
@my_wait_event_info = external global ptr, align 8

; Function Attrs: inlinehint nounwind uwtable
define internal void @pgstat_report_wait_end() #6 {
  %1 = load ptr, ptr @my_wait_event_info, align 8
  store volatile i32 0, ptr %1, align 4
  ret void
}

; Function Attrs: inlinehint nounwind uwtable
define internal void @pgstat_report_wait_start(i32 noundef %0) #6 {
  %2 = alloca i32, align 4
  store i32 %0, ptr %2, align 4
  %3 = load i32, ptr %2, align 4
  %4 = load ptr, ptr @my_wait_event_info, align 8
  store volatile i32 %3, ptr %4, align 4
  ret void
}

; Function Attrs: nounwind uwtable
define dso_local void @copy_file(ptr noundef %0, ptr noundef %1) #0 {
  %3 = alloca ptr, align 8
  %4 = alloca ptr, align 8
  %5 = alloca ptr, align 8
  %6 = alloca i32, align 4
  %7 = alloca i32, align 4
  %8 = alloca i32, align 4
  %9 = alloca i64, align 8
  %10 = alloca i64, align 8
  store ptr %0, ptr %3, align 8
  store ptr %1, ptr %4, align 8
  call void @llvm.lifetime.start.p0(i64 8, ptr %5) #8
  call void @llvm.lifetime.start.p0(i64 4, ptr %6) #8
  call void @llvm.lifetime.start.p0(i64 4, ptr %7) #8
  call void @llvm.lifetime.start.p0(i64 4, ptr %8) #8
  call void @llvm.lifetime.start.p0(i64 8, ptr %9) #8
  call void @llvm.lifetime.start.p0(i64 8, ptr %10) #8
  %11 = call ptr @palloc(i64 noundef 65536)
  store ptr %11, ptr %5, align 8
  %12 = load ptr, ptr %3, align 8
  %13 = call i32 @OpenTransientFile(ptr noundef %12, i32 noundef 0)
  store i32 %13, ptr %6, align 4
  %14 = load i32, ptr %6, align 4
  %15 = icmp slt i32 %14, 0
  br i1 %15, label %16, label %29

16:                                               ; preds = %2
  br label %17

17:                                               ; preds = %16
  br i1 true, label %18, label %20

18:                                               ; preds = %17
  %19 = call zeroext i1 @errstart_cold(i32 noundef 21, ptr noundef null) #9
  br i1 %19, label %22, label %26

20:                                               ; preds = %17
  %21 = call zeroext i1 @errstart(i32 noundef 21, ptr noundef null)
  br i1 %21, label %22, label %26

22:                                               ; preds = %20, %18
  %23 = call i32 @errcode_for_file_access()
  %24 = load ptr, ptr %3, align 8
  %25 = call i32 (ptr, ...) @errmsg(ptr noundef @.str.5, ptr noundef %24)
  call void @errfinish(ptr noundef @.str.1, i32 noundef 151, ptr noundef @__func__.copy_file)
  br label %26

26:                                               ; preds = %22, %20, %18
  unreachable

27:                                               ; No predecessors!
  br label %28

28:                                               ; preds = %27
  br label %29

29:                                               ; preds = %28, %2
  %30 = load ptr, ptr %4, align 8
  %31 = call i32 @OpenTransientFile(ptr noundef %30, i32 noundef 194)
  store i32 %31, ptr %7, align 4
  %32 = load i32, ptr %7, align 4
  %33 = icmp slt i32 %32, 0
  br i1 %33, label %34, label %47

34:                                               ; preds = %29
  br label %35

35:                                               ; preds = %34
  br i1 true, label %36, label %38

36:                                               ; preds = %35
  %37 = call zeroext i1 @errstart_cold(i32 noundef 21, ptr noundef null) #9
  br i1 %37, label %40, label %44

38:                                               ; preds = %35
  %39 = call zeroext i1 @errstart(i32 noundef 21, ptr noundef null)
  br i1 %39, label %40, label %44

40:                                               ; preds = %38, %36
  %41 = call i32 @errcode_for_file_access()
  %42 = load ptr, ptr %4, align 8
  %43 = call i32 (ptr, ...) @errmsg(ptr noundef @.str.6, ptr noundef %42)
  call void @errfinish(ptr noundef @.str.1, i32 noundef 157, ptr noundef @__func__.copy_file)
  br label %44

44:                                               ; preds = %40, %38, %36
  unreachable

45:                                               ; No predecessors!
  br label %46

46:                                               ; preds = %45
  br label %47

47:                                               ; preds = %46, %29
  store i64 0, ptr %10, align 8
  store i64 0, ptr %9, align 8
  br label %48

48:                                               ; preds = %125, %47
  br label %49

49:                                               ; preds = %48
  %50 = load volatile i32, ptr @InterruptPending, align 4
  %51 = icmp ne i32 %50, 0
  %52 = zext i1 %51 to i32
  %53 = sext i32 %52 to i64
  %54 = call i64 @llvm.expect.i64(i64 %53, i64 0)
  %55 = icmp ne i64 %54, 0
  br i1 %55, label %56, label %57

56:                                               ; preds = %49
  call void @ProcessInterrupts()
  br label %57

57:                                               ; preds = %56, %49
  br label %58

58:                                               ; preds = %57
  br label %59

59:                                               ; preds = %58
  %60 = load i64, ptr %9, align 8
  %61 = load i64, ptr %10, align 8
  %62 = sub i64 %60, %61
  %63 = icmp sge i64 %62, 1048576
  br i1 %63, label %64, label %71

64:                                               ; preds = %59
  %65 = load i32, ptr %7, align 4
  %66 = load i64, ptr %10, align 8
  %67 = load i64, ptr %9, align 8
  %68 = load i64, ptr %10, align 8
  %69 = sub i64 %67, %68
  call void @pg_flush_data(i32 noundef %65, i64 noundef %66, i64 noundef %69)
  %70 = load i64, ptr %9, align 8
  store i64 %70, ptr %10, align 8
  br label %71

71:                                               ; preds = %64, %59
  call void @pgstat_report_wait_start(i32 noundef 167772171)
  %72 = load i32, ptr %6, align 4
  %73 = load ptr, ptr %5, align 8
  %74 = call i64 @read(i32 noundef %72, ptr noundef %73, i64 noundef 65536)
  %75 = trunc i64 %74 to i32
  store i32 %75, ptr %8, align 4
  call void @pgstat_report_wait_end()
  %76 = load i32, ptr %8, align 4
  %77 = icmp slt i32 %76, 0
  br i1 %77, label %78, label %91

78:                                               ; preds = %71
  br label %79

79:                                               ; preds = %78
  br i1 true, label %80, label %82

80:                                               ; preds = %79
  %81 = call zeroext i1 @errstart_cold(i32 noundef 21, ptr noundef null) #9
  br i1 %81, label %84, label %88

82:                                               ; preds = %79
  %83 = call zeroext i1 @errstart(i32 noundef 21, ptr noundef null)
  br i1 %83, label %84, label %88

84:                                               ; preds = %82, %80
  %85 = call i32 @errcode_for_file_access()
  %86 = load ptr, ptr %3, align 8
  %87 = call i32 (ptr, ...) @errmsg(ptr noundef @.str.7, ptr noundef %86)
  call void @errfinish(ptr noundef @.str.1, i32 noundef 185, ptr noundef @__func__.copy_file)
  br label %88

88:                                               ; preds = %84, %82, %80
  unreachable

89:                                               ; No predecessors!
  br label %90

90:                                               ; preds = %89
  br label %91

91:                                               ; preds = %90, %71
  %92 = load i32, ptr %8, align 4
  %93 = icmp eq i32 %92, 0
  br i1 %93, label %94, label %95

94:                                               ; preds = %91
  br label %130

95:                                               ; preds = %91
  %96 = call ptr @__errno_location() #11
  store i32 0, ptr %96, align 4
  call void @pgstat_report_wait_start(i32 noundef 167772172)
  %97 = load i32, ptr %7, align 4
  %98 = load ptr, ptr %5, align 8
  %99 = load i32, ptr %8, align 4
  %100 = sext i32 %99 to i64
  %101 = call i64 @write(i32 noundef %97, ptr noundef %98, i64 noundef %100)
  %102 = trunc i64 %101 to i32
  %103 = load i32, ptr %8, align 4
  %104 = icmp ne i32 %102, %103
  br i1 %104, label %105, label %124

105:                                              ; preds = %95
  %106 = call ptr @__errno_location() #11
  %107 = load i32, ptr %106, align 4
  %108 = icmp eq i32 %107, 0
  br i1 %108, label %109, label %111

109:                                              ; preds = %105
  %110 = call ptr @__errno_location() #11
  store i32 28, ptr %110, align 4
  br label %111

111:                                              ; preds = %109, %105
  br label %112

112:                                              ; preds = %111
  br i1 true, label %113, label %115

113:                                              ; preds = %112
  %114 = call zeroext i1 @errstart_cold(i32 noundef 21, ptr noundef null) #9
  br i1 %114, label %117, label %121

115:                                              ; preds = %112
  %116 = call zeroext i1 @errstart(i32 noundef 21, ptr noundef null)
  br i1 %116, label %117, label %121

117:                                              ; preds = %115, %113
  %118 = call i32 @errcode_for_file_access()
  %119 = load ptr, ptr %4, align 8
  %120 = call i32 (ptr, ...) @errmsg(ptr noundef @.str.8, ptr noundef %119)
  call void @errfinish(ptr noundef @.str.1, i32 noundef 197, ptr noundef @__func__.copy_file)
  br label %121

121:                                              ; preds = %117, %115, %113
  unreachable

122:                                              ; No predecessors!
  br label %123

123:                                              ; preds = %122
  br label %124

124:                                              ; preds = %123, %95
  call void @pgstat_report_wait_end()
  br label %125

125:                                              ; preds = %124
  %126 = load i32, ptr %8, align 4
  %127 = sext i32 %126 to i64
  %128 = load i64, ptr %9, align 8
  %129 = add i64 %128, %127
  store i64 %129, ptr %9, align 8
  br label %48

130:                                              ; preds = %94
  %131 = load i64, ptr %9, align 8
  %132 = load i64, ptr %10, align 8
  %133 = icmp sgt i64 %131, %132
  br i1 %133, label %134, label %140

134:                                              ; preds = %130
  %135 = load i32, ptr %7, align 4
  %136 = load i64, ptr %10, align 8
  %137 = load i64, ptr %9, align 8
  %138 = load i64, ptr %10, align 8
  %139 = sub i64 %137, %138
  call void @pg_flush_data(i32 noundef %135, i64 noundef %136, i64 noundef %139)
  br label %140

140:                                              ; preds = %134, %130
  %141 = load i32, ptr %7, align 4
  %142 = call i32 @CloseTransientFile(i32 noundef %141)
  %143 = icmp ne i32 %142, 0
  br i1 %143, label %144, label %157

144:                                              ; preds = %140
  br label %145

145:                                              ; preds = %144
  br i1 true, label %146, label %148

146:                                              ; preds = %145
  %147 = call zeroext i1 @errstart_cold(i32 noundef 21, ptr noundef null) #9
  br i1 %147, label %150, label %154

148:                                              ; preds = %145
  %149 = call zeroext i1 @errstart(i32 noundef 21, ptr noundef null)
  br i1 %149, label %150, label %154

150:                                              ; preds = %148, %146
  %151 = call i32 @errcode_for_file_access()
  %152 = load ptr, ptr %4, align 8
  %153 = call i32 (ptr, ...) @errmsg(ptr noundef @.str.9, ptr noundef %152)
  call void @errfinish(ptr noundef @.str.1, i32 noundef 208, ptr noundef @__func__.copy_file)
  br label %154

154:                                              ; preds = %150, %148, %146
  unreachable

155:                                              ; No predecessors!
  br label %156

156:                                              ; preds = %155
  br label %157

157:                                              ; preds = %156, %140
  %158 = load i32, ptr %6, align 4
  %159 = call i32 @CloseTransientFile(i32 noundef %158)
  %160 = icmp ne i32 %159, 0
  br i1 %160, label %161, label %174

161:                                              ; preds = %157
  br label %162

162:                                              ; preds = %161
  br i1 true, label %163, label %165

163:                                              ; preds = %162
  %164 = call zeroext i1 @errstart_cold(i32 noundef 21, ptr noundef null) #9
  br i1 %164, label %167, label %171

165:                                              ; preds = %162
  %166 = call zeroext i1 @errstart(i32 noundef 21, ptr noundef null)
  br i1 %166, label %167, label %171

167:                                              ; preds = %165, %163
  %168 = call i32 @errcode_for_file_access()
  %169 = load ptr, ptr %3, align 8
  %170 = call i32 (ptr, ...) @errmsg(ptr noundef @.str.9, ptr noundef %169)
  call void @errfinish(ptr noundef @.str.1, i32 noundef 213, ptr noundef @__func__.copy_file)
  br label %171

171:                                              ; preds = %167, %165, %163
  unreachable

172:                                              ; No predecessors!
  br label %173

173:                                              ; preds = %172
  br label %174

174:                                              ; preds = %173, %157
  %175 = load ptr, ptr %5, align 8
  call void @pfree(ptr noundef %175)
  call void @llvm.lifetime.end.p0(i64 8, ptr %10) #8
  call void @llvm.lifetime.end.p0(i64 8, ptr %9) #8
  call void @llvm.lifetime.end.p0(i64 4, ptr %8) #8
  call void @llvm.lifetime.end.p0(i64 4, ptr %7) #8
  call void @llvm.lifetime.end.p0(i64 4, ptr %6) #8
  call void @llvm.lifetime.end.p0(i64 8, ptr %5) #8
  ret void
}