; Function Attrs: nounwind uwtable
define dso_local void @copy_file(ptr noundef %0, ptr noundef %1) local_unnamed_addr #0 {
  %3 = tail call ptr @palloc(i64 noundef 65536) #7
  %4 = tail call i32 @OpenTransientFile(ptr noundef %0, i32 noundef 0) #7
  %5 = icmp slt i32 %4, 0
  br i1 %5, label %6, label %10

6:                                                ; preds = %2
  %7 = tail call zeroext i1 @errstart_cold(i32 noundef 21, ptr noundef null) #8
  tail call void @llvm.assume(i1 %7)
  %8 = tail call i32 @errcode_for_file_access() #7
  %9 = tail call i32 (ptr, ...) @errmsg(ptr noundef nonnull @.str.5, ptr noundef %0) #7
  tail call void @errfinish(ptr noundef nonnull @.str.1, i32 noundef 151, ptr noundef nonnull @__func__.copy_file) #7
  unreachable

10:                                               ; preds = %2
  %11 = tail call i32 @OpenTransientFile(ptr noundef %1, i32 noundef 194) #7
  %12 = icmp slt i32 %11, 0
  br i1 %12, label %13, label %.preheader

13:                                               ; preds = %10
  %14 = tail call zeroext i1 @errstart_cold(i32 noundef 21, ptr noundef null) #8
  tail call void @llvm.assume(i1 %14)
  %15 = tail call i32 @errcode_for_file_access() #7
  %16 = tail call i32 (ptr, ...) @errmsg(ptr noundef nonnull @.str.6, ptr noundef %1) #7
  tail call void @errfinish(ptr noundef nonnull @.str.1, i32 noundef 157, ptr noundef nonnull @__func__.copy_file) #7
  unreachable

.preheader:                                       ; preds = %10, %49
  %.035 = phi i64 [ %51, %49 ], [ 0, %10 ]
  %.0 = phi i64 [ %.1, %49 ], [ 0, %10 ]
  %17 = load volatile i32, ptr @InterruptPending, align 4
  %.not = icmp eq i32 %17, 0
  br i1 %.not, label %19, label %18, !prof !4

18:                                               ; preds = %.preheader
  tail call void @ProcessInterrupts() #7
  br label %19

19:                                               ; preds = %18, %.preheader
  %20 = sub i64 %.035, %.0
  %21 = icmp sgt i64 %20, 1048575
  br i1 %21, label %22, label %23

22:                                               ; preds = %19
  tail call void @pg_flush_data(i32 noundef %11, i64 noundef %.0, i64 noundef %20) #7
  br label %23

23:                                               ; preds = %22, %19
  %.1 = phi i64 [ %.035, %22 ], [ %.0, %19 ]
  %24 = load ptr, ptr @my_wait_event_info, align 8
  store volatile i32 167772171, ptr %24, align 4
  %25 = tail call i64 @read(i32 noundef %4, ptr noundef %3, i64 noundef 65536) #7
  %26 = trunc i64 %25 to i32
  %27 = load ptr, ptr @my_wait_event_info, align 8
  store volatile i32 0, ptr %27, align 4
  %28 = icmp slt i32 %26, 0
  br i1 %28, label %29, label %33

29:                                               ; preds = %23
  %30 = tail call zeroext i1 @errstart_cold(i32 noundef 21, ptr noundef null) #8
  tail call void @llvm.assume(i1 %30)
  %31 = tail call i32 @errcode_for_file_access() #7
  %32 = tail call i32 (ptr, ...) @errmsg(ptr noundef nonnull @.str.7, ptr noundef %0) #7
  tail call void @errfinish(ptr noundef nonnull @.str.1, i32 noundef 185, ptr noundef nonnull @__func__.copy_file) #7
  unreachable

33:                                               ; preds = %23
  %34 = icmp eq i32 %26, 0
  br i1 %34, label %52, label %35

35:                                               ; preds = %33
  %36 = tail call ptr @__errno_location() #9
  store i32 0, ptr %36, align 4
  %37 = load ptr, ptr @my_wait_event_info, align 8
  store volatile i32 167772172, ptr %37, align 4
  %38 = and i64 %25, 2147483647
  %39 = tail call i64 @write(i32 noundef %11, ptr noundef %3, i64 noundef %38) #7
  %40 = trunc i64 %39 to i32
  %.not40 = icmp eq i32 %40, %26
  br i1 %.not40, label %49, label %41

41:                                               ; preds = %35
  %42 = load i32, ptr %36, align 4
  %43 = icmp eq i32 %42, 0
  br i1 %43, label %44, label %45

44:                                               ; preds = %41
  store i32 28, ptr %36, align 4
  br label %45

45:                                               ; preds = %44, %41
  %46 = tail call zeroext i1 @errstart_cold(i32 noundef 21, ptr noundef null) #8
  tail call void @llvm.assume(i1 %46)
  %47 = tail call i32 @errcode_for_file_access() #7
  %48 = tail call i32 (ptr, ...) @errmsg(ptr noundef nonnull @.str.8, ptr noundef %1) #7
  tail call void @errfinish(ptr noundef nonnull @.str.1, i32 noundef 197, ptr noundef nonnull @__func__.copy_file) #7
  unreachable

49:                                               ; preds = %35
  %50 = load ptr, ptr @my_wait_event_info, align 8
  store volatile i32 0, ptr %50, align 4
  %51 = add i64 %38, %.035
  br label %.preheader

52:                                               ; preds = %33
  %53 = icmp sgt i64 %.035, %.1
  br i1 %53, label %54, label %56

54:                                               ; preds = %52
  %55 = sub i64 %.035, %.1
  tail call void @pg_flush_data(i32 noundef %11, i64 noundef %.1, i64 noundef %55) #7
  br label %56

56:                                               ; preds = %54, %52
  %57 = tail call i32 @CloseTransientFile(i32 noundef %11) #7
  %.not41 = icmp eq i32 %57, 0
  br i1 %.not41, label %62, label %58

58:                                               ; preds = %56
  %59 = tail call zeroext i1 @errstart_cold(i32 noundef 21, ptr noundef null) #8
  tail call void @llvm.assume(i1 %59)
  %60 = tail call i32 @errcode_for_file_access() #7
  %61 = tail call i32 (ptr, ...) @errmsg(ptr noundef nonnull @.str.9, ptr noundef %1) #7
  tail call void @errfinish(ptr noundef nonnull @.str.1, i32 noundef 208, ptr noundef nonnull @__func__.copy_file) #7
  unreachable

62:                                               ; preds = %56
  %63 = tail call i32 @CloseTransientFile(i32 noundef %4) #7
  %.not42 = icmp eq i32 %63, 0
  br i1 %.not42, label %68, label %64

64:                                               ; preds = %62
  %65 = tail call zeroext i1 @errstart_cold(i32 noundef 21, ptr noundef null) #8
  tail call void @llvm.assume(i1 %65)
  %66 = tail call i32 @errcode_for_file_access() #7
  %67 = tail call i32 (ptr, ...) @errmsg(ptr noundef nonnull @.str.9, ptr noundef %0) #7
  tail call void @errfinish(ptr noundef nonnull @.str.1, i32 noundef 213, ptr noundef nonnull @__func__.copy_file) #7
  unreachable

68:                                               ; preds = %62
  tail call void @pfree(ptr noundef %3) #7
  ret void
}